; Function Attrs: mustprogress uwtable
define hidden range(i32 0, 2) i32 @hb_font_set_user_data(ptr nocapture noundef %0, ptr noundef %1, ptr noundef %2, ptr noundef %3, i32 noundef %4) local_unnamed_addr #1 {
  %6 = getelementptr inbounds i8, ptr %0, i64 4
  %7 = load atomic i32, ptr %6 monotonic, align 4
  %.not.i = icmp eq i32 %7, 0
  br i1 %.not.i, label %12, label %8

8:                                                ; preds = %5
  %9 = getelementptr inbounds i8, ptr %0, i64 16
  %10 = load i32, ptr %9, align 8
  %11 = add i32 %10, 1
  store i32 %11, ptr %9, align 8
  br label %12

12:                                               ; preds = %5, %8
  %13 = load atomic i32, ptr %0 monotonic, align 4
  %.not.i.i = icmp eq i32 %13, 0
  br i1 %.not.i.i, label %_ZL23hb_object_set_user_dataI9hb_font_tEbPT_P18hb_user_data_key_tPvPFvS5_Ei.exit, label %.preheader.i

.preheader.i:                                     ; preds = %12
  %14 = getelementptr inbounds i8, ptr %0, i64 8
  %15 = load atomic i64, ptr %14 acquire, align 8
  %.not1923.i = icmp eq i64 %15, 0
  br i1 %.not1923.i, label %.lr.ph.i, label %.split.loop.exit21.i

.lr.ph.i:                                         ; preds = %.preheader.i, %23
  %16 = tail call noalias dereferenceable_or_null(56) ptr @calloc(i64 noundef 56, i64 noundef 1) #23
  %.not20.i = icmp eq ptr %16, null
  br i1 %.not20.i, label %_ZL23hb_object_set_user_dataI9hb_font_tEbPT_P18hb_user_data_key_tPvPFvS5_Ei.exit, label %17

17:                                               ; preds = %.lr.ph.i
  %18 = tail call i32 @pthread_mutex_init(ptr noundef nonnull %16, ptr noundef null) #24
  %19 = getelementptr inbounds i8, ptr %16, i64 40
  tail call void @llvm.memset.p0.i64(ptr noundef nonnull align 8 dereferenceable(16) %19, i8 0, i64 16, i1 false)
  %20 = ptrtoint ptr %16 to i64
  %21 = cmpxchg weak ptr %14, i64 0, i64 %20 acq_rel monotonic, align 8
  %22 = extractvalue { i64, i1 } %21, 1
  br i1 %22, label %.split.loop.exit.i, label %23

23:                                               ; preds = %17
  tail call void @_ZN17hb_lockable_set_tIN20hb_user_data_array_t19hb_user_data_item_tE10hb_mutex_tE4finiERS2_(ptr noundef nonnull align 8 dereferenceable(16) %19, ptr noundef nonnull align 8 dereferenceable(40) %16)
  %24 = tail call i32 @pthread_mutex_destroy(ptr noundef nonnull %16) #24
  tail call void @free(ptr noundef nonnull %16) #24
  %25 = load atomic i64, ptr %14 acquire, align 8
  %.not19.i = icmp eq i64 %25, 0
  br i1 %.not19.i, label %.lr.ph.i, label %.split.loop.exit21.i

.split.loop.exit21.i:                             ; preds = %23, %.preheader.i
  %.lcssa.i = phi i64 [ %15, %.preheader.i ], [ %25, %23 ]
  %26 = inttoptr i64 %.lcssa.i to ptr
  br label %.split.loop.exit.i

.split.loop.exit.i:                               ; preds = %17, %.split.loop.exit21.i
  %.0.i = phi ptr [ %26, %.split.loop.exit21.i ], [ %16, %17 ]
  %27 = tail call noundef zeroext i1 @_ZN20hb_user_data_array_t3setEP18hb_user_data_key_tPvPFvS2_Ei(ptr noundef nonnull align 8 dereferenceable(56) %.0.i, ptr noundef %1, ptr noundef %2, ptr noundef %3, i32 noundef %4)
  %28 = zext i1 %27 to i32
  br label %_ZL23hb_object_set_user_dataI9hb_font_tEbPT_P18hb_user_data_key_tPvPFvS5_Ei.exit

_ZL23hb_object_set_user_dataI9hb_font_tEbPT_P18hb_user_data_key_tPvPFvS5_Ei.exit: ; preds = %.lr.ph.i, %12, %.split.loop.exit.i
  %.015.i = phi i32 [ %28, %.split.loop.exit.i ], [ 0, %12 ], [ 0, %.lr.ph.i ]
  ret i32 %.015.i
}